; ModuleID = 'source-C-CXX/35/995.c'
source_filename = "source-C-CXX/35/995.c"
target datalayout = "e-m:e-p270:32:32-p271:32:32-p272:64:64-i64:64-f80:128-n8:16:32:64-S128"
target triple = "x86_64-pc-linux-gnu"

@.str = private unnamed_addr constant [6 x i8] c"%s %s\00", align 1
@.str.1 = private unnamed_addr constant [3 x i8] c"NO\00", align 1
@.str.2 = private unnamed_addr constant [4 x i8] c"YES\00", align 1

; Function Attrs: nofree nounwind sspstrong uwtable
define dso_local void @main() local_unnamed_addr #0 {
  %1 = alloca [300 x i8], align 16
  %2 = alloca [300 x i8], align 16
  %3 = alloca [128 x i32], align 16
  %4 = alloca [128 x i32], align 16
  %5 = getelementptr inbounds [300 x i8], [300 x i8]* %1, i64 0, i64 0
  call void @llvm.lifetime.start.p0i8(i64 300, i8* nonnull %5) #5
  %6 = getelementptr inbounds [300 x i8], [300 x i8]* %2, i64 0, i64 0
  call void @llvm.lifetime.start.p0i8(i64 300, i8* nonnull %6) #5
  %7 = bitcast [128 x i32]* %3 to i8*
  call void @llvm.lifetime.start.p0i8(i64 512, i8* nonnull %7) #5
  call void @llvm.memset.p0i8.i64(i8* noundef nonnull align 16 dereferenceable(512) %7, i8 0, i64 512, i1 false)
  %8 = bitcast [128 x i32]* %4 to i8*
  call void @llvm.lifetime.start.p0i8(i64 512, i8* nonnull %8) #5
  call void @llvm.memset.p0i8.i64(i8* noundef nonnull align 16 dereferenceable(512) %8, i8 0, i64 512, i1 false)
  %9 = call i32 (i8*, ...) @__isoc99_scanf(i8* getelementptr inbounds ([6 x i8], [6 x i8]* @.str, i64 0, i64 0), i8* nonnull %5, i8* nonnull %6)
  %10 = call i64 @strlen(i8* noundef nonnull %5) #6
  %11 = call i64 @strlen(i8* noundef nonnull %6) #6
  %12 = icmp eq i64 %10, %11
  %13 = icmp ne i64 %10, 0
  %14 = and i1 %12, %13
  br i1 %14, label %15, label %67

15:                                               ; preds = %0
  %16 = and i64 %10, 1
  %17 = icmp eq i64 %10, 1
  br i1 %17, label %51, label %18

18:                                               ; preds = %15
  %19 = and i64 %10, -2
  br label %20

20:                                               ; preds = %20, %18
  %21 = phi i64 [ 0, %18 ], [ %48, %20 ]
  %22 = phi i64 [ %19, %18 ], [ %49, %20 ]
  %23 = getelementptr inbounds [300 x i8], [300 x i8]* %1, i64 0, i64 %21
  %24 = load i8, i8* %23, align 2, !tbaa !5
  %25 = getelementptr inbounds [300 x i8], [300 x i8]* %2, i64 0, i64 %21
  %26 = load i8, i8* %25, align 2, !tbaa !5
  %27 = sext i8 %24 to i64
  %28 = getelementptr inbounds [128 x i32], [128 x i32]* %3, i64 0, i64 %27
  %29 = load i32, i32* %28, align 4, !tbaa !8
  %30 = add nsw i32 %29, 1
  store i32 %30, i32* %28, align 4, !tbaa !8
  %31 = sext i8 %26 to i64
  %32 = getelementptr inbounds [128 x i32], [128 x i32]* %4, i64 0, i64 %31
  %33 = load i32, i32* %32, align 4, !tbaa !8
  %34 = add nsw i32 %33, 1
  store i32 %34, i32* %32, align 4, !tbaa !8
  %35 = or i64 %21, 1
  %36 = getelementptr inbounds [300 x i8], [300 x i8]* %1, i64 0, i64 %35
  %37 = load i8, i8* %36, align 1, !tbaa !5
  %38 = getelementptr inbounds [300 x i8], [300 x i8]* %2, i64 0, i64 %35
  %39 = load i8, i8* %38, align 1, !tbaa !5
  %40 = sext i8 %37 to i64
  %41 = getelementptr inbounds [128 x i32], [128 x i32]* %3, i64 0, i64 %40
  %42 = load i32, i32* %41, align 4, !tbaa !8
  %43 = add nsw i32 %42, 1
  store i32 %43, i32* %41, align 4, !tbaa !8
  %44 = sext i8 %39 to i64
  %45 = getelementptr inbounds [128 x i32], [128 x i32]* %4, i64 0, i64 %44
  %46 = load i32, i32* %45, align 4, !tbaa !8
  %47 = add nsw i32 %46, 1
  store i32 %47, i32* %45, align 4, !tbaa !8
  %48 = add nuw nsw i64 %21, 2
  %49 = add i64 %22, -2
  %50 = icmp eq i64 %49, 0
  br i1 %50, label %51, label %20, !llvm.loop !10

51:                                               ; preds = %20, %15
  %52 = phi i64 [ 0, %15 ], [ %48, %20 ]
  %53 = icmp eq i64 %16, 0
  br i1 %53, label %67, label %54

54:                                               ; preds = %51
  %55 = getelementptr inbounds [300 x i8], [300 x i8]* %1, i64 0, i64 %52
  %56 = load i8, i8* %55, align 1, !tbaa !5
  %57 = getelementptr inbounds [300 x i8], [300 x i8]* %2, i64 0, i64 %52
  %58 = load i8, i8* %57, align 1, !tbaa !5
  %59 = sext i8 %56 to i64
  %60 = getelementptr inbounds [128 x i32], [128 x i32]* %3, i64 0, i64 %59
  %61 = load i32, i32* %60, align 4, !tbaa !8
  %62 = add nsw i32 %61, 1
  store i32 %62, i32* %60, align 4, !tbaa !8
  %63 = sext i8 %58 to i64
  %64 = getelementptr inbounds [128 x i32], [128 x i32]* %4, i64 0, i64 %63
  %65 = load i32, i32* %64, align 4, !tbaa !8
  %66 = add nsw i32 %65, 1
  store i32 %66, i32* %64, align 4, !tbaa !8
  br label %67

67:                                               ; preds = %54, %51, %0
  br label %75

68:                                               ; preds = %75
  %69 = or i64 %76, 1
  %70 = getelementptr inbounds [128 x i32], [128 x i32]* %3, i64 0, i64 %69
  %71 = load i32, i32* %70, align 4, !tbaa !8
  %72 = getelementptr inbounds [128 x i32], [128 x i32]* %4, i64 0, i64 %69
  %73 = load i32, i32* %72, align 4, !tbaa !8
  %74 = icmp eq i32 %71, %73
  br i1 %74, label %87, label %84

75:                                               ; preds = %101, %67
  %76 = phi i64 [ 0, %67 ], [ %102, %101 ]
  %77 = getelementptr inbounds [128 x i32], [128 x i32]* %3, i64 0, i64 %76
  %78 = load i32, i32* %77, align 16, !tbaa !8
  %79 = getelementptr inbounds [128 x i32], [128 x i32]* %4, i64 0, i64 %76
  %80 = load i32, i32* %79, align 16, !tbaa !8
  %81 = icmp eq i32 %78, %80
  br i1 %81, label %68, label %84

82:                                               ; preds = %101
  %83 = select i1 %12, i8* getelementptr inbounds ([4 x i8], [4 x i8]* @.str.2, i64 0, i64 0), i8* getelementptr inbounds ([3 x i8], [3 x i8]* @.str.1, i64 0, i64 0)
  br label %84

84:                                               ; preds = %75, %68, %87, %94, %82
  %85 = phi i8* [ %83, %82 ], [ getelementptr inbounds ([3 x i8], [3 x i8]* @.str.1, i64 0, i64 0), %94 ], [ getelementptr inbounds ([3 x i8], [3 x i8]* @.str.1, i64 0, i64 0), %87 ], [ getelementptr inbounds ([3 x i8], [3 x i8]* @.str.1, i64 0, i64 0), %68 ], [ getelementptr inbounds ([3 x i8], [3 x i8]* @.str.1, i64 0, i64 0), %75 ]
  %86 = call i32 (i8*, ...) @printf(i8* nonnull dereferenceable(1) %85)
  call void @llvm.lifetime.end.p0i8(i64 512, i8* nonnull %8) #5
  call void @llvm.lifetime.end.p0i8(i64 512, i8* nonnull %7) #5
  call void @llvm.lifetime.end.p0i8(i64 300, i8* nonnull %6) #5
  call void @llvm.lifetime.end.p0i8(i64 300, i8* nonnull %5) #5
  ret void

87:                                               ; preds = %68
  %88 = or i64 %76, 2
  %89 = getelementptr inbounds [128 x i32], [128 x i32]* %3, i64 0, i64 %88
  %90 = load i32, i32* %89, align 8, !tbaa !8
  %91 = getelementptr inbounds [128 x i32], [128 x i32]* %4, i64 0, i64 %88
  %92 = load i32, i32* %91, align 8, !tbaa !8
  %93 = icmp eq i32 %90, %92
  br i1 %93, label %94, label %84

94:                                               ; preds = %87
  %95 = or i64 %76, 3
  %96 = getelementptr inbounds [128 x i32], [128 x i32]* %3, i64 0, i64 %95
  %97 = load i32, i32* %96, align 4, !tbaa !8
  %98 = getelementptr inbounds [128 x i32], [128 x i32]* %4, i64 0, i64 %95
  %99 = load i32, i32* %98, align 4, !tbaa !8
  %100 = icmp eq i32 %97, %99
  br i1 %100, label %101, label %84

101:                                              ; preds = %94
  %102 = add nuw nsw i64 %76, 4
  %103 = icmp eq i64 %102, 128
  br i1 %103, label %82, label %75, !llvm.loop !12
}

; Function Attrs: argmemonly mustprogress nofree nosync nounwind willreturn
declare void @llvm.lifetime.start.p0i8(i64 immarg, i8* nocapture) #1

; Function Attrs: argmemonly mustprogress nofree nounwind willreturn writeonly
declare void @llvm.memset.p0i8.i64(i8* nocapture writeonly, i8, i64, i1 immarg) #2

; Function Attrs: nofree nounwind
declare noundef i32 @__isoc99_scanf(i8* nocapture noundef readonly, ...) local_unnamed_addr #3

; Function Attrs: argmemonly mustprogress nofree nounwind readonly willreturn
declare i64 @strlen(i8* nocapture) local_unnamed_addr #4

; Function Attrs: nofree nounwind
declare noundef i32 @printf(i8* nocapture noundef readonly, ...) local_unnamed_addr #3

; Function Attrs: argmemonly mustprogress nofree nosync nounwind willreturn
declare void @llvm.lifetime.end.p0i8(i64 immarg, i8* nocapture) #1


!llvm.module.flags = !{!0, !1, !2, !3}
!llvm.ident = !{!4}

!0 = !{i32 1, !"wchar_size", i32 4}
!1 = !{i32 7, !"PIC Level", i32 2}
!2 = !{i32 7, !"PIE Level", i32 2}
!3 = !{i32 7, !"uwtable", i32 1}
!4 = !{!"clang version 13.0.0"}
!5 = !{!6, !6, i64 0}
!6 = !{!"omnipotent char", !7, i64 0}
!7 = !{!"Simple C/C++ TBAA"}
!8 = !{!9, !9, i64 0}
!9 = !{!"int", !6, i64 0}
!10 = distinct !{!10, !11}
!11 = !{!"llvm.loop.mustprogress"}
!12 = distinct !{!12, !11}
